; Function Attrs: mustprogress uwtable
define noundef i64 @_ZN6duckdb21DictionaryCompression13RequiredSpaceEmmmh(i64 noundef %0, i64 noundef %1, i64 noundef %2, i8 noundef zeroext %3) local_unnamed_addr #0 align 2 {
  %5 = trunc i64 %0 to i32
  %6 = and i32 %5, 31
  %7 = icmp eq i32 %6, 0
  br i1 %7, label %_ZN6duckdb20BitpackingPrimitives15GetRequiredSizeEmh.exit, label %8

8:                                                ; preds = %4
  %9 = add i64 %0, 32
  %10 = tail call noundef i64 @_ZN6duckdb15NumericCastImplImiLb0EE7ConvertEi(i32 noundef %6)
  %11 = sub i64 %9, %10
  br label %_ZN6duckdb20BitpackingPrimitives15GetRequiredSizeEmh.exit

_ZN6duckdb20BitpackingPrimitives15GetRequiredSizeEmh.exit: ; preds = %4, %8
  %.0.i.i = phi i64 [ %11, %8 ], [ %0, %4 ]
  %12 = add i64 %2, 20
  %13 = zext i8 %3 to i64
  %14 = mul i64 %.0.i.i, %13
  %15 = lshr i64 %14, 3
  %16 = shl i64 %1, 2
  %17 = add i64 %12, %16
  %18 = add i64 %17, %15
  ret i64 %18
}